target datalayout = "e-m:e-p270:32:32-p271:32:32-p272:64:64-i64:64-i128:128-f80:128-n8:16:32:64-S128"
target triple = "x86_64-pc-linux-gnu"

%class.OverlayScrollBar = type <{ %class.QScrollBar, ptr, ptr, %class.QScrollBar, %class.QImage, %class.QImage, i32, i32, i32, i32, i32, [4 x i8], %class.QList, i32, [4 x i8] }>
%class.QScrollBar = type { %class.QAbstractSlider }
%class.QAbstractSlider = type { %class.QWidget }
%class.QWidget = type { %class.QObject, %class.QPaintDevice.base, ptr }
%class.QObject = type { ptr, %class.QScopedPointer }
%class.QScopedPointer = type { ptr }
%class.QPaintDevice.base = type <{ ptr, i16 }>
%class.QImage = type { %class.QPaintDevice.base, ptr }
%class.QList = type { %struct.QArrayDataPointer }
%struct.QArrayDataPointer = type { ptr, ptr, i64 }

; Function Attrs: mustprogress nounwind uwtable
define linkonce_odr noundef double @_ZN12QPaintDevice22devicePixelRatioFScaleEv() #4 comdat align 2 {
  ret double 6.553600e+04
}

; Function Attrs: mustprogress uwtable
define linkonce_odr noundef double @_ZNK12QPaintDevice16devicePixelRatioEv(ptr noundef nonnull align 8 dereferenceable(10) %0) #0 comdat align 2 {
  %2 = alloca ptr, align 8
  store ptr %0, ptr %2, align 8
  %3 = load ptr, ptr %2, align 8
  %4 = load ptr, ptr %3, align 8
  %5 = getelementptr inbounds ptr, ptr %4, i64 4
  %6 = load ptr, ptr %5, align 8
  %7 = call noundef i32 %6(ptr noundef nonnull align 8 dereferenceable(10) %3, i32 noundef 12)
  %8 = sitofp i32 %7 to double
  %9 = call noundef double @_ZN12QPaintDevice22devicePixelRatioFScaleEv()
  %10 = fdiv double %8, %9
  ret double %10
}

; Function Attrs: mustprogress uwtable
define void @_ZN16OverlayScrollBar20setMarkedPacketImageER6QImage(ptr noundef nonnull align 8 dereferenceable(196) %0, ptr noundef nonnull align 8 dereferenceable(24) %1) #0 align 2 {
  %3 = alloca ptr, align 8
  %4 = alloca ptr, align 8
  %5 = alloca double, align 8
  store ptr %0, ptr %3, align 8
  store ptr %1, ptr %4, align 8
  %6 = load ptr, ptr %3, align 8
  %7 = getelementptr inbounds i8, ptr %6, i64 16
  %8 = call noundef double @_ZNK12QPaintDevice16devicePixelRatioEv(ptr noundef nonnull align 8 dereferenceable(10) %7)
  store double %8, ptr %5, align 8
  %9 = load ptr, ptr %4, align 8
  %10 = getelementptr inbounds %class.OverlayScrollBar, ptr %6, i32 0, i32 5
  %11 = call noundef nonnull align 8 dereferenceable(24) ptr @_ZN6QImageaSERKS_(ptr noundef nonnull align 8 dereferenceable(24) %10, ptr noundef nonnull align 8 dereferenceable(24) %9)
  %12 = load ptr, ptr %4, align 8
  %13 = call noundef i32 @_ZNK6QImage5widthEv(ptr noundef nonnull align 8 dereferenceable(24) %12)
  %14 = sitofp i32 %13 to double
  %15 = load double, ptr %5, align 8
  %16 = fdiv double %14, %15
  %17 = fptosi double %16 to i32
  %18 = getelementptr inbounds %class.OverlayScrollBar, ptr %6, i32 0, i32 7
  store i32 %17, ptr %18, align 4
  %19 = getelementptr inbounds %class.OverlayScrollBar, ptr %6, i32 0, i32 3
  call void @_ZN7QWidget6updateEv(ptr noundef nonnull align 8 dereferenceable(40) %19)
  ret void
}