; Function Attrs: mustprogress uwtable
define void @_ZN16OverlayScrollBar20setMarkedPacketImageER6QImage(ptr noundef nonnull align 8 dereferenceable(196) %0, ptr noundef nonnull align 8 dereferenceable(24) %1) local_unnamed_addr #0 align 2 {
  %3 = getelementptr inbounds i8, ptr %0, i64 16
  %4 = load ptr, ptr %3, align 8
  %5 = getelementptr inbounds i8, ptr %4, i64 32
  %6 = load ptr, ptr %5, align 8
  %7 = tail call noundef i32 %6(ptr noundef nonnull align 8 dereferenceable(10) %3, i32 noundef 12)
  %8 = sitofp i32 %7 to double
  %9 = fmul double %8, 0x3EF0000000000000
  %10 = getelementptr inbounds i8, ptr %0, i64 120
  %11 = tail call noundef nonnull align 8 dereferenceable(24) ptr @_ZN6QImageaSERKS_(ptr noundef nonnull align 8 dereferenceable(24) %10, ptr noundef nonnull align 8 dereferenceable(24) %1)
  %12 = tail call noundef i32 @_ZNK6QImage5widthEv(ptr noundef nonnull align 8 dereferenceable(24) %1)
  %13 = sitofp i32 %12 to double
  %14 = fdiv double %13, %9
  %15 = fptosi double %14 to i32
  %16 = getelementptr inbounds i8, ptr %0, i64 148
  store i32 %15, ptr %16, align 4
  %17 = getelementptr inbounds i8, ptr %0, i64 56
  tail call void @_ZN7QWidget6updateEv(ptr noundef nonnull align 8 dereferenceable(40) %17)
  ret void
}